target datalayout = "e-m:e-p270:32:32-p271:32:32-p272:64:64-i64:64-i128:128-f80:128-n8:16:32:64-S128"
target triple = "x86_64-pc-linux-gnu"

%struct.Py_complex = type { double, double }

@asinh_special_values = internal global [7 x [7 x %struct.Py_complex]] zeroinitializer, align 16

; Function Attrs: nounwind uwtable
define internal i32 @special_type(double noundef %0) #0 {
  %2 = alloca i32, align 4
  %3 = alloca double, align 8
  store double %0, ptr %3, align 8, !tbaa !9
  %4 = load double, ptr %3, align 8, !tbaa !9
  %5 = call i1 @llvm.is.fpclass.f64(double %4, i32 504)
  br i1 %5, label %6, label %21

6:                                                ; preds = %1
  %7 = load double, ptr %3, align 8, !tbaa !9
  %8 = fcmp une double %7, 0.000000e+00
  br i1 %8, label %9, label %15

9:                                                ; preds = %6
  %10 = load double, ptr %3, align 8, !tbaa !9
  %11 = call double @llvm.copysign.f64(double 1.000000e+00, double %10)
  %12 = fcmp oeq double %11, 1.000000e+00
  br i1 %12, label %13, label %14

13:                                               ; preds = %9
  store i32 4, ptr %2, align 4
  br label %31

14:                                               ; preds = %9
  store i32 1, ptr %2, align 4
  br label %31

15:                                               ; preds = %6
  %16 = load double, ptr %3, align 8, !tbaa !9
  %17 = call double @llvm.copysign.f64(double 1.000000e+00, double %16)
  %18 = fcmp oeq double %17, 1.000000e+00
  br i1 %18, label %19, label %20

19:                                               ; preds = %15
  store i32 3, ptr %2, align 4
  br label %31

20:                                               ; preds = %15
  store i32 2, ptr %2, align 4
  br label %31

21:                                               ; preds = %1
  %22 = load double, ptr %3, align 8, !tbaa !9
  %23 = call i1 @llvm.is.fpclass.f64(double %22, i32 3)
  br i1 %23, label %24, label %25

24:                                               ; preds = %21
  store i32 6, ptr %2, align 4
  br label %31

25:                                               ; preds = %21
  %26 = load double, ptr %3, align 8, !tbaa !9
  %27 = call double @llvm.copysign.f64(double 1.000000e+00, double %26)
  %28 = fcmp oeq double %27, 1.000000e+00
  br i1 %28, label %29, label %30

29:                                               ; preds = %25
  store i32 5, ptr %2, align 4
  br label %31

30:                                               ; preds = %25
  store i32 0, ptr %2, align 4
  br label %31

31:                                               ; preds = %30, %29, %24, %20, %19, %14, %13
  %32 = load i32, ptr %2, align 4
  ret i32 %32
}

; Function Attrs: nounwind uwtable
define internal { double, double } @cmath_asinh_impl(ptr noundef %0, double %1, double %2) #0 {
  %4 = alloca %struct.Py_complex, align 8
  %5 = alloca %struct.Py_complex, align 8
  %6 = alloca ptr, align 8
  %7 = alloca %struct.Py_complex, align 8
  %8 = alloca %struct.Py_complex, align 8
  %9 = alloca %struct.Py_complex, align 8
  %10 = alloca i32, align 4
  %11 = alloca %struct.Py_complex, align 8
  %12 = alloca %struct.Py_complex, align 8
  %13 = getelementptr inbounds nuw { double, double }, ptr %5, i32 0, i32 0
  store double %1, ptr %13, align 8
  %14 = getelementptr inbounds nuw { double, double }, ptr %5, i32 0, i32 1
  store double %2, ptr %14, align 8
  store ptr %0, ptr %6, align 8, !tbaa !3
  call void @llvm.lifetime.start.p0(i64 16, ptr %7) #8
  call void @llvm.lifetime.start.p0(i64 16, ptr %8) #8
  call void @llvm.lifetime.start.p0(i64 16, ptr %9) #8
  %15 = getelementptr inbounds nuw %struct.Py_complex, ptr %5, i32 0, i32 0
  %16 = load double, ptr %15, align 8, !tbaa !17
  %17 = call i1 @llvm.is.fpclass.f64(double %16, i32 504)
  br i1 %17, label %18, label %22

18:                                               ; preds = %3
  %19 = getelementptr inbounds nuw %struct.Py_complex, ptr %5, i32 0, i32 1
  %20 = load double, ptr %19, align 8, !tbaa !19
  %21 = call i1 @llvm.is.fpclass.f64(double %20, i32 504)
  br i1 %21, label %34, label %22

22:                                               ; preds = %18, %3
  %23 = call ptr @__errno_location() #9
  store i32 0, ptr %23, align 4, !tbaa !11
  %24 = getelementptr inbounds nuw %struct.Py_complex, ptr %5, i32 0, i32 0
  %25 = load double, ptr %24, align 8, !tbaa !17
  %26 = call i32 @special_type(double noundef %25)
  %27 = zext i32 %26 to i64
  %28 = getelementptr [7 x [7 x %struct.Py_complex]], ptr @asinh_special_values, i64 0, i64 %27
  %29 = getelementptr inbounds nuw %struct.Py_complex, ptr %5, i32 0, i32 1
  %30 = load double, ptr %29, align 8, !tbaa !19
  %31 = call i32 @special_type(double noundef %30)
  %32 = zext i32 %31 to i64
  %33 = getelementptr [7 x %struct.Py_complex], ptr %28, i64 0, i64 %32
  call void @llvm.memcpy.p0.p0.i64(ptr align 8 %4, ptr align 16 %33, i64 16, i1 false), !tbaa.struct !8
  store i32 1, ptr %10, align 4
  br label %152

34:                                               ; preds = %18
  %35 = getelementptr inbounds nuw %struct.Py_complex, ptr %5, i32 0, i32 0
  %36 = load double, ptr %35, align 8, !tbaa !17
  %37 = call double @llvm.fabs.f64(double %36)
  %38 = fcmp ogt double %37, 0x7FCFFFFFFFFFFFFF
  br i1 %38, label %44, label %39

39:                                               ; preds = %34
  %40 = getelementptr inbounds nuw %struct.Py_complex, ptr %5, i32 0, i32 1
  %41 = load double, ptr %40, align 8, !tbaa !19
  %42 = call double @llvm.fabs.f64(double %41)
  %43 = fcmp ogt double %42, 0x7FCFFFFFFFFFFFFF
  br i1 %43, label %44, label %86

44:                                               ; preds = %39, %34
  %45 = getelementptr inbounds nuw %struct.Py_complex, ptr %5, i32 0, i32 1
  %46 = load double, ptr %45, align 8, !tbaa !19
  %47 = fcmp oge double %46, 0.000000e+00
  br i1 %47, label %48, label %62

48:                                               ; preds = %44
  %49 = getelementptr inbounds nuw %struct.Py_complex, ptr %5, i32 0, i32 0
  %50 = load double, ptr %49, align 8, !tbaa !17
  %51 = fdiv double %50, 2.000000e+00
  %52 = getelementptr inbounds nuw %struct.Py_complex, ptr %5, i32 0, i32 1
  %53 = load double, ptr %52, align 8, !tbaa !19
  %54 = fdiv double %53, 2.000000e+00
  %55 = call double @hypot(double noundef %51, double noundef %54) #8, !tbaa !11
  %56 = call double @log(double noundef %55) #8, !tbaa !11
  %57 = fadd double %56, 0x3FF62E42FEFA39EF
  %58 = getelementptr inbounds nuw %struct.Py_complex, ptr %5, i32 0, i32 0
  %59 = load double, ptr %58, align 8, !tbaa !17
  %60 = call double @llvm.copysign.f64(double %57, double %59)
  %61 = getelementptr inbounds nuw %struct.Py_complex, ptr %9, i32 0, i32 0
  store double %60, ptr %61, align 8, !tbaa !17
  br label %78

62:                                               ; preds = %44
  %63 = getelementptr inbounds nuw %struct.Py_complex, ptr %5, i32 0, i32 0
  %64 = load double, ptr %63, align 8, !tbaa !17
  %65 = fdiv double %64, 2.000000e+00
  %66 = getelementptr inbounds nuw %struct.Py_complex, ptr %5, i32 0, i32 1
  %67 = load double, ptr %66, align 8, !tbaa !19
  %68 = fdiv double %67, 2.000000e+00
  %69 = call double @hypot(double noundef %65, double noundef %68) #8, !tbaa !11
  %70 = call double @log(double noundef %69) #8, !tbaa !11
  %71 = fadd double %70, 0x3FF62E42FEFA39EF
  %72 = getelementptr inbounds nuw %struct.Py_complex, ptr %5, i32 0, i32 0
  %73 = load double, ptr %72, align 8, !tbaa !17
  %74 = fneg double %73
  %75 = call double @llvm.copysign.f64(double %71, double %74)
  %76 = fneg double %75
  %77 = getelementptr inbounds nuw %struct.Py_complex, ptr %9, i32 0, i32 0
  store double %76, ptr %77, align 8, !tbaa !17
  br label %78

78:                                               ; preds = %62, %48
  %79 = getelementptr inbounds nuw %struct.Py_complex, ptr %5, i32 0, i32 1
  %80 = load double, ptr %79, align 8, !tbaa !19
  %81 = getelementptr inbounds nuw %struct.Py_complex, ptr %5, i32 0, i32 0
  %82 = load double, ptr %81, align 8, !tbaa !17
  %83 = call double @llvm.fabs.f64(double %82)
  %84 = call double @atan2(double noundef %80, double noundef %83) #8, !tbaa !11
  %85 = getelementptr inbounds nuw %struct.Py_complex, ptr %9, i32 0, i32 1
  store double %84, ptr %85, align 8, !tbaa !19
  br label %150

86:                                               ; preds = %39
  %87 = getelementptr inbounds nuw %struct.Py_complex, ptr %5, i32 0, i32 1
  %88 = load double, ptr %87, align 8, !tbaa !19
  %89 = fadd double 1.000000e+00, %88
  %90 = getelementptr inbounds nuw %struct.Py_complex, ptr %7, i32 0, i32 0
  store double %89, ptr %90, align 8, !tbaa !17
  %91 = getelementptr inbounds nuw %struct.Py_complex, ptr %5, i32 0, i32 0
  %92 = load double, ptr %91, align 8, !tbaa !17
  %93 = fneg double %92
  %94 = getelementptr inbounds nuw %struct.Py_complex, ptr %7, i32 0, i32 1
  store double %93, ptr %94, align 8, !tbaa !19
  call void @llvm.lifetime.start.p0(i64 16, ptr %11) #8
  %95 = load ptr, ptr %6, align 8, !tbaa !3
  %96 = getelementptr inbounds nuw { double, double }, ptr %7, i32 0, i32 0
  %97 = load double, ptr %96, align 8
  %98 = getelementptr inbounds nuw { double, double }, ptr %7, i32 0, i32 1
  %99 = load double, ptr %98, align 8
  %100 = call { double, double } @cmath_sqrt_impl(ptr noundef %95, double %97, double %99)
  %101 = getelementptr inbounds nuw { double, double }, ptr %11, i32 0, i32 0
  %102 = extractvalue { double, double } %100, 0
  store double %102, ptr %101, align 8
  %103 = getelementptr inbounds nuw { double, double }, ptr %11, i32 0, i32 1
  %104 = extractvalue { double, double } %100, 1
  store double %104, ptr %103, align 8
  call void @llvm.memcpy.p0.p0.i64(ptr align 8 %7, ptr align 8 %11, i64 16, i1 false), !tbaa.struct !8
  call void @llvm.lifetime.end.p0(i64 16, ptr %11) #8
  %105 = getelementptr inbounds nuw %struct.Py_complex, ptr %5, i32 0, i32 1
  %106 = load double, ptr %105, align 8, !tbaa !19
  %107 = fsub double 1.000000e+00, %106
  %108 = getelementptr inbounds nuw %struct.Py_complex, ptr %8, i32 0, i32 0
  store double %107, ptr %108, align 8, !tbaa !17
  %109 = getelementptr inbounds nuw %struct.Py_complex, ptr %5, i32 0, i32 0
  %110 = load double, ptr %109, align 8, !tbaa !17
  %111 = getelementptr inbounds nuw %struct.Py_complex, ptr %8, i32 0, i32 1
  store double %110, ptr %111, align 8, !tbaa !19
  call void @llvm.lifetime.start.p0(i64 16, ptr %12) #8
  %112 = load ptr, ptr %6, align 8, !tbaa !3
  %113 = getelementptr inbounds nuw { double, double }, ptr %8, i32 0, i32 0
  %114 = load double, ptr %113, align 8
  %115 = getelementptr inbounds nuw { double, double }, ptr %8, i32 0, i32 1
  %116 = load double, ptr %115, align 8
  %117 = call { double, double } @cmath_sqrt_impl(ptr noundef %112, double %114, double %116)
  %118 = getelementptr inbounds nuw { double, double }, ptr %12, i32 0, i32 0
  %119 = extractvalue { double, double } %117, 0
  store double %119, ptr %118, align 8
  %120 = getelementptr inbounds nuw { double, double }, ptr %12, i32 0, i32 1
  %121 = extractvalue { double, double } %117, 1
  store double %121, ptr %120, align 8
  call void @llvm.memcpy.p0.p0.i64(ptr align 8 %8, ptr align 8 %12, i64 16, i1 false), !tbaa.struct !8
  call void @llvm.lifetime.end.p0(i64 16, ptr %12) #8
  %122 = getelementptr inbounds nuw %struct.Py_complex, ptr %7, i32 0, i32 0
  %123 = load double, ptr %122, align 8, !tbaa !17
  %124 = getelementptr inbounds nuw %struct.Py_complex, ptr %8, i32 0, i32 1
  %125 = load double, ptr %124, align 8, !tbaa !19
  %126 = getelementptr inbounds nuw %struct.Py_complex, ptr %8, i32 0, i32 0
  %127 = load double, ptr %126, align 8, !tbaa !17
  %128 = getelementptr inbounds nuw %struct.Py_complex, ptr %7, i32 0, i32 1
  %129 = load double, ptr %128, align 8, !tbaa !19
  %130 = fmul double %127, %129
  %131 = fneg double %130
  %132 = call double @llvm.fmuladd.f64(double %123, double %125, double %131)
  %133 = call double @asinh(double noundef %132) #8, !tbaa !11
  %134 = getelementptr inbounds nuw %struct.Py_complex, ptr %9, i32 0, i32 0
  store double %133, ptr %134, align 8, !tbaa !17
  %135 = getelementptr inbounds nuw %struct.Py_complex, ptr %5, i32 0, i32 1
  %136 = load double, ptr %135, align 8, !tbaa !19
  %137 = getelementptr inbounds nuw %struct.Py_complex, ptr %7, i32 0, i32 0
  %138 = load double, ptr %137, align 8, !tbaa !17
  %139 = getelementptr inbounds nuw %struct.Py_complex, ptr %8, i32 0, i32 0
  %140 = load double, ptr %139, align 8, !tbaa !17
  %141 = getelementptr inbounds nuw %struct.Py_complex, ptr %7, i32 0, i32 1
  %142 = load double, ptr %141, align 8, !tbaa !19
  %143 = getelementptr inbounds nuw %struct.Py_complex, ptr %8, i32 0, i32 1
  %144 = load double, ptr %143, align 8, !tbaa !19
  %145 = fmul double %142, %144
  %146 = fneg double %145
  %147 = call double @llvm.fmuladd.f64(double %138, double %140, double %146)
  %148 = call double @atan2(double noundef %136, double noundef %147) #8, !tbaa !11
  %149 = getelementptr inbounds nuw %struct.Py_complex, ptr %9, i32 0, i32 1
  store double %148, ptr %149, align 8, !tbaa !19
  br label %150

150:                                              ; preds = %86, %78
  %151 = call ptr @__errno_location() #9
  store i32 0, ptr %151, align 4, !tbaa !11
  call void @llvm.memcpy.p0.p0.i64(ptr align 8 %4, ptr align 8 %9, i64 16, i1 false), !tbaa.struct !8
  store i32 1, ptr %10, align 4
  br label %152

152:                                              ; preds = %150, %22
  call void @llvm.lifetime.end.p0(i64 16, ptr %9) #8
  call void @llvm.lifetime.end.p0(i64 16, ptr %8) #8
  call void @llvm.lifetime.end.p0(i64 16, ptr %7) #8
  %153 = load { double, double }, ptr %4, align 8
  ret { double, double } %153
}