; Function Attrs: mustprogress nofree nounwind willreturn uwtable
define internal fastcc { double, double } @cmath_asinh_impl(double %0, double %1) unnamed_addr #6 {
  %3 = tail call double @llvm.fabs.f64(double %0)
  %4 = fcmp ueq double %3, 0x7FF0000000000000
  %5 = tail call double @llvm.fabs.f64(double %1)
  %6 = fcmp ueq double %5, 0x7FF0000000000000
  %or.cond = select i1 %4, i1 true, i1 %6
  br i1 %or.cond, label %7, label %32

7:                                                ; preds = %2
  %8 = tail call ptr @__errno_location() #12
  store i32 0, ptr %8, align 4, !tbaa !3
  br i1 %4, label %15, label %9

9:                                                ; preds = %7
  %10 = fcmp une double %0, 0.000000e+00
  %11 = tail call double @llvm.copysign.f64(double 1.000000e+00, double %0)
  %12 = fcmp oeq double %11, 1.000000e+00
  br i1 %10, label %13, label %14

13:                                               ; preds = %9
  %..i = select i1 %12, i64 4, i64 1
  br label %special_type.exit

14:                                               ; preds = %9
  %.7.i = select i1 %12, i64 3, i64 2
  br label %special_type.exit

15:                                               ; preds = %7
  %16 = fcmp uno double %0, 0.000000e+00
  br i1 %16, label %special_type.exit, label %17

17:                                               ; preds = %15
  %18 = tail call double @llvm.copysign.f64(double 1.000000e+00, double %0)
  %19 = fcmp oeq double %18, 1.000000e+00
  %.8.i = select i1 %19, i64 5, i64 0
  br label %special_type.exit

special_type.exit:                                ; preds = %13, %14, %15, %17
  %.0.i = phi i64 [ %..i, %13 ], [ %.7.i, %14 ], [ 6, %15 ], [ %.8.i, %17 ]
  br i1 %6, label %26, label %20

20:                                               ; preds = %special_type.exit
  %21 = fcmp une double %1, 0.000000e+00
  %22 = tail call double @llvm.copysign.f64(double 1.000000e+00, double %1)
  %23 = fcmp oeq double %22, 1.000000e+00
  br i1 %21, label %24, label %25

24:                                               ; preds = %20
  %..i41 = select i1 %23, i64 4, i64 1
  br label %special_type.exit43

25:                                               ; preds = %20
  %.7.i39 = select i1 %23, i64 3, i64 2
  br label %special_type.exit43

26:                                               ; preds = %special_type.exit
  %27 = fcmp uno double %1, 0.000000e+00
  br i1 %27, label %special_type.exit43, label %28

28:                                               ; preds = %26
  %29 = tail call double @llvm.copysign.f64(double 1.000000e+00, double %1)
  %30 = fcmp oeq double %29, 1.000000e+00
  %.8.i42 = select i1 %30, i64 5, i64 0
  br label %special_type.exit43

special_type.exit43:                              ; preds = %24, %25, %26, %28
  %.0.i40 = phi i64 [ %..i41, %24 ], [ %.7.i39, %25 ], [ 6, %26 ], [ %.8.i42, %28 ]
  %31 = getelementptr [7 x [7 x %struct.Py_complex]], ptr @asinh_special_values, i64 0, i64 %.0.i, i64 %.0.i40
  %.sroa.035.0.copyload = load double, ptr %31, align 16, !tbaa !7
  %.sroa.3.0..sroa_idx = getelementptr inbounds nuw i8, ptr %31, i64 8
  %.sroa.3.0.copyload = load double, ptr %.sroa.3.0..sroa_idx, align 8, !tbaa !7
  br label %62

32:                                               ; preds = %2
  %33 = fcmp ogt double %3, 0x7FCFFFFFFFFFFFFF
  %34 = fcmp ogt double %5, 0x7FCFFFFFFFFFFFFF
  %or.cond38 = select i1 %33, i1 true, i1 %34
  br i1 %or.cond38, label %35, label %42

35:                                               ; preds = %32
  %36 = fmul double %0, 5.000000e-01
  %37 = fmul double %1, 5.000000e-01
  %38 = tail call double @hypot(double noundef %36, double noundef %37) #11, !tbaa !3
  %39 = tail call double @log(double noundef %38) #11, !tbaa !3
  %40 = fadd double %39, 0x3FF62E42FEFA39EF
  %41 = tail call double @llvm.copysign.f64(double %40, double %0)
  br label %59

42:                                               ; preds = %32
  %43 = fadd double %1, 1.000000e+00
  %44 = fneg double %0
  %45 = tail call fastcc { double, double } @cmath_sqrt_impl(double %43, double %44)
  %46 = extractvalue { double, double } %45, 0
  %47 = extractvalue { double, double } %45, 1
  %48 = fsub double 1.000000e+00, %1
  %49 = tail call fastcc { double, double } @cmath_sqrt_impl(double %48, double %0)
  %50 = extractvalue { double, double } %49, 0
  %51 = extractvalue { double, double } %49, 1
  %52 = fneg double %47
  %53 = fmul double %50, %52
  %54 = tail call double @llvm.fmuladd.f64(double %46, double %51, double %53)
  %55 = tail call double @asinh(double noundef %54) #11, !tbaa !3
  %56 = fneg double %51
  %57 = fmul double %47, %56
  %58 = tail call double @llvm.fmuladd.f64(double %46, double %50, double %57)
  br label %59

59:                                               ; preds = %42, %35
  %.sink = phi double [ %58, %42 ], [ %3, %35 ]
  %.sroa.03.1 = phi double [ %55, %42 ], [ %41, %35 ]
  %60 = tail call double @atan2(double noundef %1, double noundef %.sink) #11, !tbaa !3
  %61 = tail call ptr @__errno_location() #12
  store i32 0, ptr %61, align 4, !tbaa !3
  br label %62

62:                                               ; preds = %59, %special_type.exit43
  %.sroa.035.0 = phi double [ %.sroa.03.1, %59 ], [ %.sroa.035.0.copyload, %special_type.exit43 ]
  %.sroa.3.0 = phi double [ %60, %59 ], [ %.sroa.3.0.copyload, %special_type.exit43 ]
  %.fca.0.insert = insertvalue { double, double } poison, double %.sroa.035.0, 0
  %.fca.1.insert = insertvalue { double, double } %.fca.0.insert, double %.sroa.3.0, 1
  ret { double, double } %.fca.1.insert
}